target datalayout = "e-m:e-p270:32:32-p271:32:32-p272:64:64-i64:64-i128:128-f80:128-n8:16:32:64-S128"
target triple = "x86_64-pc-linux-gnu"

@.str.9 = private unnamed_addr constant [15 x i8] c"/proc/self/mem\00", align 1
@guest_base = external global i64, align 8

; Function Attrs: inlinehint nounwind sspstrong uwtable
define internal ptr @g2h_untagged(i64 noundef %0) #1 {
  %2 = alloca i64, align 8
  store i64 %0, ptr %2, align 8
  %3 = load i64, ptr %2, align 8
  %4 = load i64, ptr @guest_base, align 8
  %5 = add i64 %3, %4
  %6 = inttoptr i64 %5 to ptr
  ret ptr %6
}

; Function Attrs: inlinehint nounwind sspstrong uwtable
define internal void @unlock_user(ptr noundef %0, i64 noundef %1, i64 noundef %2) #1 {
  %4 = alloca ptr, align 8
  %5 = alloca i64, align 8
  %6 = alloca i64, align 8
  store ptr %0, ptr %4, align 8
  store i64 %1, ptr %5, align 8
  store i64 %2, ptr %6, align 8
  ret void
}

; Function Attrs: alwaysinline nounwind
define internal ptr @memcpy.inline(ptr noalias nonnull %0, ptr noalias nonnull %1, i64 %2) #12 {
  %4 = alloca ptr, align 8
  %5 = alloca ptr, align 8
  %6 = alloca i64, align 8
  store ptr %0, ptr %4, align 8
  store ptr %1, ptr %5, align 8
  store i64 %2, ptr %6, align 8
  %7 = load ptr, ptr %4, align 8
  %8 = load ptr, ptr %5, align 8
  %9 = load i64, ptr %6, align 8
  %10 = load ptr, ptr %4, align 8
  %11 = call i64 @llvm.objectsize.i64.p0(ptr %10, i1 false, i1 true, i1 false)
  %12 = call ptr @__memcpy_chk(ptr noundef %7, ptr noundef %8, i64 noundef %9, i64 noundef %11) #16
  ret ptr %12
}

; Function Attrs: nounwind sspstrong uwtable
define dso_local i32 @cpu_memory_rw_debug(ptr noundef %0, i64 noundef %1, ptr noundef %2, i64 noundef %3, i1 noundef zeroext %4) #0 {
  %6 = alloca ptr, align 8
  %7 = alloca i64, align 8
  %8 = alloca ptr, align 8
  %9 = alloca i64, align 8
  %10 = alloca i8, align 1
  %11 = alloca i32, align 4
  %12 = alloca i64, align 8
  %13 = alloca i64, align 8
  %14 = alloca ptr, align 8
  %15 = alloca ptr, align 8
  %16 = alloca i64, align 8
  %17 = alloca i32, align 4
  %18 = alloca i32, align 4
  store ptr %0, ptr %6, align 8
  store i64 %1, ptr %7, align 8
  store ptr %2, ptr %8, align 8
  store i64 %3, ptr %9, align 8
  %19 = zext i1 %4 to i8
  store i8 %19, ptr %10, align 1
  call void @llvm.lifetime.start.p0(i64 4, ptr %11) #16
  store i32 0, ptr %11, align 4, !annotation !7
  call void @llvm.lifetime.start.p0(i64 8, ptr %12) #16
  store i64 0, ptr %12, align 8, !annotation !7
  call void @llvm.lifetime.start.p0(i64 8, ptr %13) #16
  store i64 0, ptr %13, align 8, !annotation !7
  call void @llvm.lifetime.start.p0(i64 8, ptr %14) #16
  store ptr null, ptr %14, align 8, !annotation !7
  call void @llvm.lifetime.start.p0(i64 8, ptr %15) #16
  %20 = load ptr, ptr %8, align 8
  store ptr %20, ptr %15, align 8
  call void @llvm.lifetime.start.p0(i64 8, ptr %16) #16
  store i64 0, ptr %16, align 8, !annotation !7
  call void @llvm.lifetime.start.p0(i64 4, ptr %17) #16
  store i32 -1, ptr %17, align 4
  call void @llvm.lifetime.start.p0(i64 4, ptr %18) #16
  store i32 -1, ptr %18, align 4
  br label %21

21:                                               ; preds = %133, %5
  %22 = load i64, ptr %9, align 8
  %23 = icmp ugt i64 %22, 0
  br i1 %23, label %24, label %143

24:                                               ; preds = %21
  %25 = load i64, ptr %7, align 8
  %26 = and i64 %25, -4096
  store i64 %26, ptr %13, align 8
  %27 = load i64, ptr %13, align 8
  %28 = add i64 %27, 4096
  %29 = load i64, ptr %7, align 8
  %30 = sub i64 %28, %29
  store i64 %30, ptr %12, align 8
  %31 = load i64, ptr %12, align 8
  %32 = load i64, ptr %9, align 8
  %33 = icmp ugt i64 %31, %32
  br i1 %33, label %34, label %36

34:                                               ; preds = %24
  %35 = load i64, ptr %9, align 8
  store i64 %35, ptr %12, align 8
  br label %36

36:                                               ; preds = %34, %24
  %37 = load i64, ptr %13, align 8
  %38 = call i32 @page_get_flags(i64 noundef %37)
  store i32 %38, ptr %11, align 4
  %39 = load i32, ptr %11, align 4
  %40 = and i32 %39, 8
  %41 = icmp ne i32 %40, 0
  br i1 %41, label %43, label %42

42:                                               ; preds = %36
  br label %144

43:                                               ; preds = %36
  %44 = load i8, ptr %10, align 1, !range !4, !noundef !5
  %45 = trunc i8 %44 to i1
  br i1 %45, label %46, label %93

46:                                               ; preds = %43
  %47 = load i32, ptr %11, align 4
  %48 = and i32 %47, 2
  %49 = icmp ne i32 %48, 0
  br i1 %49, label %50, label %65

50:                                               ; preds = %46
  %51 = load i64, ptr %7, align 8
  %52 = load i64, ptr %12, align 8
  %53 = call ptr @lock_user(i32 noundef 3, i64 noundef %51, i64 noundef %52, i1 noundef zeroext false)
  store ptr %53, ptr %14, align 8
  %54 = load ptr, ptr %14, align 8
  %55 = icmp ne ptr %54, null
  br i1 %55, label %57, label %56

56:                                               ; preds = %50
  br label %144

57:                                               ; preds = %50
  %58 = load ptr, ptr %14, align 8
  %59 = load ptr, ptr %15, align 8
  %60 = load i64, ptr %12, align 8
  %61 = call ptr @memcpy.inline(ptr noundef %58, ptr noundef %59, i64 noundef %60) #16
  %62 = load ptr, ptr %14, align 8
  %63 = load i64, ptr %7, align 8
  %64 = load i64, ptr %12, align 8
  call void @unlock_user(ptr noundef %62, i64 noundef %63, i64 noundef %64)
  br label %92

65:                                               ; preds = %46
  %66 = load i32, ptr %18, align 4
  %67 = icmp eq i32 %66, -1
  br i1 %67, label %68, label %74

68:                                               ; preds = %65
  %69 = call i32 (ptr, i32, ...) @open64(ptr noundef @.str.9, i32 noundef 1)
  store i32 %69, ptr %18, align 4
  %70 = load i32, ptr %18, align 4
  %71 = icmp eq i32 %70, -1
  br i1 %71, label %72, label %73

72:                                               ; preds = %68
  br label %151

73:                                               ; preds = %68
  br label %74

74:                                               ; preds = %73, %65
  call void @mmap_lock()
  %75 = load i64, ptr %7, align 8
  %76 = load i64, ptr %7, align 8
  %77 = load i64, ptr %12, align 8
  %78 = add i64 %76, %77
  %79 = sub i64 %78, 1
  call void @tb_invalidate_phys_range(i64 noundef %75, i64 noundef %79)
  %80 = load i32, ptr %18, align 4
  %81 = load ptr, ptr %15, align 8
  %82 = load i64, ptr %12, align 8
  %83 = load i64, ptr %7, align 8
  %84 = call ptr @g2h_untagged(i64 noundef %83)
  %85 = ptrtoint ptr %84 to i64
  %86 = call i64 @pwrite64(i32 noundef %80, ptr noundef %81, i64 noundef %82, i64 noundef %85)
  store i64 %86, ptr %16, align 8
  call void @mmap_unlock()
  %87 = load i64, ptr %16, align 8
  %88 = load i64, ptr %12, align 8
  %89 = icmp ne i64 %87, %88
  br i1 %89, label %90, label %91

90:                                               ; preds = %74
  br label %144

91:                                               ; preds = %74
  br label %92

92:                                               ; preds = %91, %57
  br label %133

93:                                               ; preds = %43
  %94 = load i32, ptr %11, align 4
  %95 = and i32 %94, 1
  %96 = icmp ne i32 %95, 0
  br i1 %96, label %97, label %111

97:                                               ; preds = %93
  %98 = load i64, ptr %7, align 8
  %99 = load i64, ptr %12, align 8
  %100 = call ptr @lock_user(i32 noundef 1, i64 noundef %98, i64 noundef %99, i1 noundef zeroext true)
  store ptr %100, ptr %14, align 8
  %101 = load ptr, ptr %14, align 8
  %102 = icmp ne ptr %101, null
  br i1 %102, label %104, label %103

103:                                              ; preds = %97
  br label %144

104:                                              ; preds = %97
  %105 = load ptr, ptr %15, align 8
  %106 = load ptr, ptr %14, align 8
  %107 = load i64, ptr %12, align 8
  %108 = call ptr @memcpy.inline(ptr noundef %105, ptr noundef %106, i64 noundef %107) #16
  %109 = load ptr, ptr %14, align 8
  %110 = load i64, ptr %7, align 8
  call void @unlock_user(ptr noundef %109, i64 noundef %110, i64 noundef 0)
  br label %132

111:                                              ; preds = %93
  %112 = load i32, ptr %18, align 4
  %113 = icmp eq i32 %112, -1
  br i1 %113, label %114, label %120

114:                                              ; preds = %111
  %115 = call i32 (ptr, i32, ...) @open64(ptr noundef @.str.9, i32 noundef 0)
  store i32 %115, ptr %18, align 4
  %116 = load i32, ptr %18, align 4
  %117 = icmp eq i32 %116, -1
  br i1 %117, label %118, label %119

118:                                              ; preds = %114
  br label %151

119:                                              ; preds = %114
  br label %120

120:                                              ; preds = %119, %111
  %121 = load i32, ptr %18, align 4
  %122 = load ptr, ptr %15, align 8
  %123 = load i64, ptr %12, align 8
  %124 = load i64, ptr %7, align 8
  %125 = call ptr @g2h_untagged(i64 noundef %124)
  %126 = ptrtoint ptr %125 to i64
  %127 = call i64 @pread64(i32 noundef %121, ptr noundef %122, i64 noundef %123, i64 noundef %126)
  %128 = load i64, ptr %12, align 8
  %129 = icmp ne i64 %127, %128
  br i1 %129, label %130, label %131

130:                                              ; preds = %120
  br label %144

131:                                              ; preds = %120
  br label %132

132:                                              ; preds = %131, %104
  br label %133

133:                                              ; preds = %132, %92
  %134 = load i64, ptr %12, align 8
  %135 = load i64, ptr %9, align 8
  %136 = sub i64 %135, %134
  store i64 %136, ptr %9, align 8
  %137 = load i64, ptr %12, align 8
  %138 = load ptr, ptr %15, align 8
  %139 = getelementptr inbounds nuw i8, ptr %138, i64 %137
  store ptr %139, ptr %15, align 8
  %140 = load i64, ptr %12, align 8
  %141 = load i64, ptr %7, align 8
  %142 = add i64 %141, %140
  store i64 %142, ptr %7, align 8
  br label %21, !llvm.loop !8

143:                                              ; preds = %21
  store i32 0, ptr %17, align 4
  br label %144

144:                                              ; preds = %143, %130, %103, %90, %56, %42
  %145 = load i32, ptr %18, align 4
  %146 = icmp ne i32 %145, -1
  br i1 %146, label %147, label %150

147:                                              ; preds = %144
  %148 = load i32, ptr %18, align 4
  %149 = call i32 @close(i32 noundef %148)
  br label %150

150:                                              ; preds = %147, %144
  br label %151

151:                                              ; preds = %150, %118, %72
  %152 = load i32, ptr %17, align 4
  call void @llvm.lifetime.end.p0(i64 4, ptr %18) #16
  call void @llvm.lifetime.end.p0(i64 4, ptr %17) #16
  call void @llvm.lifetime.end.p0(i64 8, ptr %16) #16
  call void @llvm.lifetime.end.p0(i64 8, ptr %15) #16
  call void @llvm.lifetime.end.p0(i64 8, ptr %14) #16
  call void @llvm.lifetime.end.p0(i64 8, ptr %13) #16
  call void @llvm.lifetime.end.p0(i64 8, ptr %12) #16
  call void @llvm.lifetime.end.p0(i64 4, ptr %11) #16
  ret i32 %152
}