; Function Attrs: nounwind sspstrong uwtable
define dso_local range(i32 -1, 1) i32 @cpu_memory_rw_debug(ptr noundef readnone captures(none) %0, i64 noundef %1, ptr noundef %2, i64 noundef %3, i1 noundef zeroext %4) local_unnamed_addr #0 {
  %.not82 = icmp eq i64 %3, 0
  br i1 %.not82, label %.loopexit, label %.lr.ph

.lr.ph:                                           ; preds = %5
  br i1 %4, label %.lr.ph.split.us, label %.lr.ph.split

.lr.ph.split.us:                                  ; preds = %.lr.ph, %26
  %.086.us = phi i32 [ %.3.us, %26 ], [ -1, %.lr.ph ]
  %.05885.us = phi ptr [ %28, %26 ], [ %2, %.lr.ph ]
  %.06084.us = phi i64 [ %29, %26 ], [ %1, %.lr.ph ]
  %.06183.us = phi i64 [ %27, %26 ], [ %3, %.lr.ph ]
  %6 = and i64 %.06084.us, -4096
  %reass.sub103 = sub i64 %6, %.06084.us
  %7 = add i64 %reass.sub103, 4096
  %spec.select.us = tail call i64 @llvm.umin.i64(i64 %7, i64 %.06183.us)
  %8 = tail call i32 @page_get_flags(i64 noundef %6) #17
  %9 = and i32 %8, 8
  %.not67.us = icmp eq i32 %9, 0
  br i1 %.not67.us, label %._crit_edge, label %10

10:                                               ; preds = %.lr.ph.split.us
  %11 = and i32 %8, 2
  %.not71.us = icmp eq i32 %11, 0
  br i1 %.not71.us, label %15, label %12

12:                                               ; preds = %10
  %13 = tail call ptr @lock_user(i32 noundef 3, i64 noundef %.06084.us, i64 noundef %spec.select.us, i1 noundef zeroext false) #17
  %.not73.us = icmp eq ptr %13, null
  br i1 %.not73.us, label %._crit_edge, label %14

14:                                               ; preds = %12
  tail call void @llvm.memcpy.p0.p0.i64(ptr noundef nonnull align 1 %13, ptr noundef nonnull align 1 %.05885.us, i64 noundef %spec.select.us, i1 noundef false) #17
  br label %26

15:                                               ; preds = %10
  %16 = icmp eq i32 %.086.us, -1
  br i1 %16, label %17, label %20

17:                                               ; preds = %15
  %18 = tail call i32 (ptr, i32, ...) @open64(ptr noundef nonnull @.str.9, i32 noundef 1) #17
  %19 = icmp eq i32 %18, -1
  br i1 %19, label %.loopexit, label %20

20:                                               ; preds = %17, %15
  %.2.us = phi i32 [ %18, %17 ], [ %.086.us, %15 ]
  tail call void @mmap_lock() #17
  %21 = add i64 %.06084.us, -1
  %22 = add i64 %21, %spec.select.us
  tail call void @tb_invalidate_phys_range(i64 noundef %.06084.us, i64 noundef %22) #17
  %23 = load i64, ptr @guest_base, align 8
  %24 = add i64 %23, %.06084.us
  %25 = tail call i64 @pwrite64(i32 noundef %.2.us, ptr noundef %.05885.us, i64 noundef %spec.select.us, i64 noundef %24) #17
  tail call void @mmap_unlock() #17
  %.not72.us = icmp eq i64 %25, %spec.select.us
  br i1 %.not72.us, label %26, label %.thread

26:                                               ; preds = %20, %14
  %.3.us = phi i32 [ %.086.us, %14 ], [ %.2.us, %20 ]
  %27 = sub i64 %.06183.us, %spec.select.us
  %28 = getelementptr inbounds nuw i8, ptr %.05885.us, i64 %spec.select.us
  %29 = add i64 %spec.select.us, %.06084.us
  %.not.us = icmp eq i64 %27, 0
  br i1 %.not.us, label %._crit_edge, label %.lr.ph.split.us, !llvm.loop !8

.lr.ph.split:                                     ; preds = %.lr.ph, %48
  %.086 = phi i32 [ %.3, %48 ], [ -1, %.lr.ph ]
  %.05885 = phi ptr [ %50, %48 ], [ %2, %.lr.ph ]
  %.06084 = phi i64 [ %51, %48 ], [ %1, %.lr.ph ]
  %.06183 = phi i64 [ %49, %48 ], [ %3, %.lr.ph ]
  %30 = and i64 %.06084, -4096
  %reass.sub = sub i64 %30, %.06084
  %31 = add i64 %reass.sub, 4096
  %spec.select = tail call i64 @llvm.umin.i64(i64 %31, i64 %.06183)
  %32 = tail call i32 @page_get_flags(i64 noundef %30) #17
  %33 = and i32 %32, 8
  %.not67 = icmp eq i32 %33, 0
  br i1 %.not67, label %._crit_edge, label %34

34:                                               ; preds = %.lr.ph.split
  %35 = and i32 %32, 1
  %.not68 = icmp eq i32 %35, 0
  br i1 %.not68, label %39, label %36

36:                                               ; preds = %34
  %37 = tail call ptr @lock_user(i32 noundef 1, i64 noundef %.06084, i64 noundef %spec.select, i1 noundef zeroext true) #17
  %.not70 = icmp eq ptr %37, null
  br i1 %.not70, label %._crit_edge, label %38

38:                                               ; preds = %36
  tail call void @llvm.memcpy.p0.p0.i64(ptr noundef nonnull align 1 %.05885, ptr noundef nonnull align 1 %37, i64 noundef %spec.select, i1 noundef false) #17
  br label %48

39:                                               ; preds = %34
  %40 = icmp eq i32 %.086, -1
  br i1 %40, label %41, label %44

41:                                               ; preds = %39
  %42 = tail call i32 (ptr, i32, ...) @open64(ptr noundef nonnull @.str.9, i32 noundef 0) #17
  %43 = icmp eq i32 %42, -1
  br i1 %43, label %.loopexit, label %44

44:                                               ; preds = %41, %39
  %.4 = phi i32 [ %42, %41 ], [ %.086, %39 ]
  %45 = load i64, ptr @guest_base, align 8
  %46 = add i64 %45, %.06084
  %47 = tail call i64 @pread64(i32 noundef %.4, ptr noundef %.05885, i64 noundef %spec.select, i64 noundef %46) #17
  %.not69 = icmp eq i64 %47, %spec.select
  br i1 %.not69, label %48, label %.thread

48:                                               ; preds = %38, %44
  %.3 = phi i32 [ %.086, %38 ], [ %.4, %44 ]
  %49 = sub i64 %.06183, %spec.select
  %50 = getelementptr inbounds nuw i8, ptr %.05885, i64 %spec.select
  %51 = add i64 %spec.select, %.06084
  %.not = icmp eq i64 %49, 0
  br i1 %.not, label %._crit_edge, label %.lr.ph.split, !llvm.loop !8

._crit_edge:                                      ; preds = %.lr.ph.split, %36, %48, %.lr.ph.split.us, %12, %26
  %.0.lcssa = phi i32 [ %.3.us, %26 ], [ %.086.us, %12 ], [ %.086.us, %.lr.ph.split.us ], [ %.3, %48 ], [ %.086, %36 ], [ %.086, %.lr.ph.split ]
  %.056 = phi i32 [ 0, %26 ], [ -1, %12 ], [ -1, %.lr.ph.split.us ], [ 0, %48 ], [ -1, %36 ], [ -1, %.lr.ph.split ]
  %.not74 = icmp eq i32 %.0.lcssa, -1
  br i1 %.not74, label %.loopexit, label %.thread

.thread:                                          ; preds = %44, %20, %._crit_edge
  %.179 = phi i32 [ %.0.lcssa, %._crit_edge ], [ %.2.us, %20 ], [ %.4, %44 ]
  %.05678 = phi i32 [ %.056, %._crit_edge ], [ -1, %20 ], [ -1, %44 ]
  %52 = tail call i32 @close(i32 noundef %.179) #17
  br label %.loopexit

.loopexit:                                        ; preds = %41, %17, %5, %._crit_edge, %.thread
  %.157 = phi i32 [ %.05678, %.thread ], [ %.056, %._crit_edge ], [ 0, %5 ], [ -1, %17 ], [ -1, %41 ]
  ret i32 %.157
}